; Function Attrs: mustprogress uwtable
define void @_ZN32pxrInternal_v0_24__pxrReserved__7TfTokenC2EPKcNS0_12_ImmortalTagE(ptr noundef nonnull writeonly align 8 captures(none) dereferenceable(8) initializes((0, 8)) %0, ptr noundef %1, i32 %2) unnamed_addr #0 align 2 {
  %4 = load atomic i64, ptr @_ZN32pxrInternal_v0_24__pxrReserved__11TfSingletonINS_16Tf_TokenRegistryEE9_instanceE seq_cst, align 8
  %.0.i.i.i = inttoptr i64 %4 to ptr
  %.not.i.i = icmp eq i64 %4, 0
  br i1 %.not.i.i, label %5, label %_ZN32pxrInternal_v0_24__pxrReserved__16Tf_TokenRegistry12_GetInstanceEv.exit

5:                                                ; preds = %3
  %6 = tail call noundef ptr @_ZN32pxrInternal_v0_24__pxrReserved__11TfSingletonINS_16Tf_TokenRegistryEE15_CreateInstanceERSt6atomicIPS1_E(ptr noundef nonnull align 8 dereferenceable(8) @_ZN32pxrInternal_v0_24__pxrReserved__11TfSingletonINS_16Tf_TokenRegistryEE9_instanceE)
  br label %_ZN32pxrInternal_v0_24__pxrReserved__16Tf_TokenRegistry12_GetInstanceEv.exit

_ZN32pxrInternal_v0_24__pxrReserved__16Tf_TokenRegistry12_GetInstanceEv.exit: ; preds = %3, %5
  %.0.i.i = phi ptr [ %.0.i.i.i, %3 ], [ %6, %5 ]
  %7 = tail call ptr @_ZN32pxrInternal_v0_24__pxrReserved__16Tf_TokenRegistry11_GetPtrImplIPKcEENS_16TfPointerAndBitsIKNS_7TfToken4_RepEEET_b(ptr noundef nonnull align 64 dereferenceable(8192) %.0.i.i, ptr noundef %1, i1 noundef zeroext true)
  store ptr %7, ptr %0, align 8
  ret void
}